target datalayout = "e-m:e-p270:32:32-p271:32:32-p272:64:64-i64:64-i128:128-f80:128-n8:16:32:64-S128"
target triple = "x86_64-pc-linux-gnu"

%struct.MatchArg = type { ptr, i32, i32, ptr, i32, ptr, i32, i64, i64, i64, ptr, i32, ptr, i64, ptr }
%struct._StackType = type { i32, i32, %union.anon.3 }
%union.anon.3 = type { %struct.anon.6 }
%struct.anon.6 = type { ptr, %union.StkPtrType, %union.StkPtrType }
%union.StkPtrType = type { i64 }

; Function Attrs: nounwind uwtable
define internal i32 @stack_double(ptr noundef %0, ptr noundef %1, ptr noundef %2, ptr noundef %3, ptr noundef %4, ptr noundef %5) #0 {
  %7 = alloca i32, align 4
  %8 = alloca ptr, align 8
  %9 = alloca ptr, align 8
  %10 = alloca ptr, align 8
  %11 = alloca ptr, align 8
  %12 = alloca ptr, align 8
  %13 = alloca ptr, align 8
  %14 = alloca i32, align 4
  %15 = alloca i32, align 4
  %16 = alloca i64, align 8
  %17 = alloca i64, align 8
  %18 = alloca ptr, align 8
  %19 = alloca ptr, align 8
  %20 = alloca ptr, align 8
  %21 = alloca ptr, align 8
  %22 = alloca ptr, align 8
  %23 = alloca i64, align 8
  %24 = alloca i32, align 4
  %25 = alloca i64, align 8
  %26 = alloca i64, align 8
  store ptr %0, ptr %8, align 8, !tbaa !66
  store ptr %1, ptr %9, align 8, !tbaa !225
  store ptr %2, ptr %10, align 8, !tbaa !222
  store ptr %3, ptr %11, align 8, !tbaa !222
  store ptr %4, ptr %12, align 8, !tbaa !222
  store ptr %5, ptr %13, align 8, !tbaa !17
  call void @llvm.lifetime.start.p0(i64 4, ptr %14) #9
  call void @llvm.lifetime.start.p0(i64 4, ptr %15) #9
  call void @llvm.lifetime.start.p0(i64 8, ptr %16) #9
  call void @llvm.lifetime.start.p0(i64 8, ptr %17) #9
  call void @llvm.lifetime.start.p0(i64 8, ptr %18) #9
  call void @llvm.lifetime.start.p0(i64 8, ptr %19) #9
  call void @llvm.lifetime.start.p0(i64 8, ptr %20) #9
  call void @llvm.lifetime.start.p0(i64 8, ptr %21) #9
  call void @llvm.lifetime.start.p0(i64 8, ptr %22) #9
  %27 = load ptr, ptr %9, align 8, !tbaa !225
  %28 = load ptr, ptr %27, align 8, !tbaa !60
  store ptr %28, ptr %18, align 8, !tbaa !60
  %29 = load ptr, ptr %10, align 8, !tbaa !222
  %30 = load ptr, ptr %29, align 8, !tbaa !116
  store ptr %30, ptr %20, align 8, !tbaa !116
  %31 = load ptr, ptr %11, align 8, !tbaa !222
  %32 = load ptr, ptr %31, align 8, !tbaa !116
  store ptr %32, ptr %21, align 8, !tbaa !116
  %33 = load ptr, ptr %12, align 8, !tbaa !222
  %34 = load ptr, ptr %33, align 8, !tbaa !116
  store ptr %34, ptr %22, align 8, !tbaa !116
  %35 = load ptr, ptr %21, align 8, !tbaa !116
  %36 = load ptr, ptr %20, align 8, !tbaa !116
  %37 = ptrtoint ptr %35 to i64
  %38 = ptrtoint ptr %36 to i64
  %39 = sub i64 %37, %38
  %40 = sdiv exact i64 %39, 32
  %41 = trunc i64 %40 to i32
  store i32 %41, ptr %14, align 4, !tbaa !9
  %42 = load ptr, ptr %13, align 8, !tbaa !17
  %43 = getelementptr inbounds nuw %struct.MatchArg, ptr %42, i32 0, i32 4
  %44 = load i32, ptr %43, align 8, !tbaa !96
  %45 = sext i32 %44 to i64
  %46 = mul i64 8, %45
  %47 = load i32, ptr %14, align 4, !tbaa !9
  %48 = zext i32 %47 to i64
  %49 = mul i64 32, %48
  %50 = add i64 %46, %49
  store i64 %50, ptr %16, align 8, !tbaa !14
  %51 = load i32, ptr %14, align 4, !tbaa !9
  %52 = mul i32 %51, 2
  store i32 %52, ptr %14, align 4, !tbaa !9
  %53 = load ptr, ptr %13, align 8, !tbaa !17
  %54 = getelementptr inbounds nuw %struct.MatchArg, ptr %53, i32 0, i32 4
  %55 = load i32, ptr %54, align 8, !tbaa !96
  %56 = sext i32 %55 to i64
  %57 = mul i64 8, %56
  %58 = load i32, ptr %14, align 4, !tbaa !9
  %59 = zext i32 %58 to i64
  %60 = mul i64 32, %59
  %61 = add i64 %57, %60
  store i64 %61, ptr %17, align 8, !tbaa !14
  %62 = load ptr, ptr %8, align 8, !tbaa !66
  %63 = load i32, ptr %62, align 4, !tbaa !9
  %64 = icmp ne i32 %63, 0
  br i1 %64, label %65, label %126

65:                                               ; preds = %6
  %66 = load i64, ptr %17, align 8, !tbaa !14
  %67 = call noalias ptr @malloc(i64 noundef %66) #10
  store ptr %67, ptr %19, align 8, !tbaa !60
  %68 = load ptr, ptr %19, align 8, !tbaa !60
  %69 = icmp eq ptr %68, null
  br i1 %69, label %70, label %121

70:                                               ; preds = %65
  br label %71

71:                                               ; preds = %70
  %72 = load ptr, ptr %21, align 8, !tbaa !116
  %73 = load ptr, ptr %20, align 8, !tbaa !116
  %74 = ptrtoint ptr %72 to i64
  %75 = ptrtoint ptr %73 to i64
  %76 = sub i64 %74, %75
  %77 = sdiv exact i64 %76, 32
  %78 = trunc i64 %77 to i32
  %79 = load ptr, ptr %13, align 8, !tbaa !17
  %80 = getelementptr inbounds nuw %struct.MatchArg, ptr %79, i32 0, i32 1
  store i32 %78, ptr %80, align 8, !tbaa !117
  %81 = load ptr, ptr %8, align 8, !tbaa !66
  %82 = load i32, ptr %81, align 4, !tbaa !9
  %83 = icmp ne i32 %82, 0
  br i1 %83, label %84, label %114

84:                                               ; preds = %71
  call void @llvm.lifetime.start.p0(i64 8, ptr %23) #9
  %85 = load ptr, ptr %13, align 8, !tbaa !17
  %86 = getelementptr inbounds nuw %struct.MatchArg, ptr %85, i32 0, i32 4
  %87 = load i32, ptr %86, align 8, !tbaa !96
  %88 = sext i32 %87 to i64
  %89 = mul i64 8, %88
  %90 = load ptr, ptr %13, align 8, !tbaa !17
  %91 = getelementptr inbounds nuw %struct.MatchArg, ptr %90, i32 0, i32 1
  %92 = load i32, ptr %91, align 8, !tbaa !117
  %93 = sext i32 %92 to i64
  %94 = mul i64 32, %93
  %95 = add i64 %89, %94
  store i64 %95, ptr %23, align 8, !tbaa !14
  %96 = load i64, ptr %23, align 8, !tbaa !14
  %97 = call noalias ptr @malloc(i64 noundef %96) #10
  %98 = load ptr, ptr %13, align 8, !tbaa !17
  %99 = getelementptr inbounds nuw %struct.MatchArg, ptr %98, i32 0, i32 0
  store ptr %97, ptr %99, align 8, !tbaa !85
  %100 = load ptr, ptr %13, align 8, !tbaa !17
  %101 = getelementptr inbounds nuw %struct.MatchArg, ptr %100, i32 0, i32 0
  %102 = load ptr, ptr %101, align 8, !tbaa !85
  %103 = icmp eq ptr %102, null
  br i1 %103, label %104, label %105

104:                                              ; preds = %84
  store i32 -5, ptr %7, align 4
  store i32 1, ptr %24, align 4
  br label %111

105:                                              ; preds = %84
  %106 = load ptr, ptr %13, align 8, !tbaa !17
  %107 = getelementptr inbounds nuw %struct.MatchArg, ptr %106, i32 0, i32 0
  %108 = load ptr, ptr %107, align 8, !tbaa !85
  %109 = load ptr, ptr %18, align 8, !tbaa !60
  %110 = load i64, ptr %23, align 8, !tbaa !14
  call void @llvm.memcpy.p0.p0.i64(ptr align 1 %108, ptr align 1 %109, i64 %110, i1 false)
  store i32 0, ptr %24, align 4
  br label %111

111:                                              ; preds = %105, %104
  call void @llvm.lifetime.end.p0(i64 8, ptr %23) #9
  %112 = load i32, ptr %24, align 4
  switch i32 %112, label %294 [
    i32 0, label %113
  ]

113:                                              ; preds = %111
  br label %118

114:                                              ; preds = %71
  %115 = load ptr, ptr %18, align 8, !tbaa !60
  %116 = load ptr, ptr %13, align 8, !tbaa !17
  %117 = getelementptr inbounds nuw %struct.MatchArg, ptr %116, i32 0, i32 0
  store ptr %115, ptr %117, align 8, !tbaa !85
  br label %118

118:                                              ; preds = %114, %113
  br label %119

119:                                              ; preds = %118
  br label %120

120:                                              ; preds = %119
  store i32 -5, ptr %7, align 4
  store i32 1, ptr %24, align 4
  br label %294

121:                                              ; preds = %65
  %122 = load ptr, ptr %19, align 8, !tbaa !60
  %123 = load ptr, ptr %18, align 8, !tbaa !60
  %124 = load i64, ptr %16, align 8, !tbaa !14
  call void @llvm.memcpy.p0.p0.i64(ptr align 1 %122, ptr align 1 %123, i64 %124, i1 false)
  %125 = load ptr, ptr %8, align 8, !tbaa !66
  store i32 0, ptr %125, align 4, !tbaa !9
  br label %263

126:                                              ; preds = %6
  %127 = load ptr, ptr %13, align 8, !tbaa !17
  %128 = getelementptr inbounds nuw %struct.MatchArg, ptr %127, i32 0, i32 6
  %129 = load i32, ptr %128, align 8, !tbaa !90
  %130 = icmp ne i32 %129, 0
  br i1 %130, label %131, label %205

131:                                              ; preds = %126
  %132 = load i32, ptr %14, align 4, !tbaa !9
  %133 = load ptr, ptr %13, align 8, !tbaa !17
  %134 = getelementptr inbounds nuw %struct.MatchArg, ptr %133, i32 0, i32 6
  %135 = load i32, ptr %134, align 8, !tbaa !90
  %136 = icmp ugt i32 %132, %135
  br i1 %136, label %137, label %205

137:                                              ; preds = %131
  %138 = load ptr, ptr %21, align 8, !tbaa !116
  %139 = load ptr, ptr %20, align 8, !tbaa !116
  %140 = ptrtoint ptr %138 to i64
  %141 = ptrtoint ptr %139 to i64
  %142 = sub i64 %140, %141
  %143 = sdiv exact i64 %142, 32
  %144 = trunc i64 %143 to i32
  %145 = load ptr, ptr %13, align 8, !tbaa !17
  %146 = getelementptr inbounds nuw %struct.MatchArg, ptr %145, i32 0, i32 6
  %147 = load i32, ptr %146, align 8, !tbaa !90
  %148 = icmp eq i32 %144, %147
  br i1 %148, label %149, label %200

149:                                              ; preds = %137
  br label %150

150:                                              ; preds = %149
  %151 = load ptr, ptr %21, align 8, !tbaa !116
  %152 = load ptr, ptr %20, align 8, !tbaa !116
  %153 = ptrtoint ptr %151 to i64
  %154 = ptrtoint ptr %152 to i64
  %155 = sub i64 %153, %154
  %156 = sdiv exact i64 %155, 32
  %157 = trunc i64 %156 to i32
  %158 = load ptr, ptr %13, align 8, !tbaa !17
  %159 = getelementptr inbounds nuw %struct.MatchArg, ptr %158, i32 0, i32 1
  store i32 %157, ptr %159, align 8, !tbaa !117
  %160 = load ptr, ptr %8, align 8, !tbaa !66
  %161 = load i32, ptr %160, align 4, !tbaa !9
  %162 = icmp ne i32 %161, 0
  br i1 %162, label %163, label %193

163:                                              ; preds = %150
  call void @llvm.lifetime.start.p0(i64 8, ptr %25) #9
  %164 = load ptr, ptr %13, align 8, !tbaa !17
  %165 = getelementptr inbounds nuw %struct.MatchArg, ptr %164, i32 0, i32 4
  %166 = load i32, ptr %165, align 8, !tbaa !96
  %167 = sext i32 %166 to i64
  %168 = mul i64 8, %167
  %169 = load ptr, ptr %13, align 8, !tbaa !17
  %170 = getelementptr inbounds nuw %struct.MatchArg, ptr %169, i32 0, i32 1
  %171 = load i32, ptr %170, align 8, !tbaa !117
  %172 = sext i32 %171 to i64
  %173 = mul i64 32, %172
  %174 = add i64 %168, %173
  store i64 %174, ptr %25, align 8, !tbaa !14
  %175 = load i64, ptr %25, align 8, !tbaa !14
  %176 = call noalias ptr @malloc(i64 noundef %175) #10
  %177 = load ptr, ptr %13, align 8, !tbaa !17
  %178 = getelementptr inbounds nuw %struct.MatchArg, ptr %177, i32 0, i32 0
  store ptr %176, ptr %178, align 8, !tbaa !85
  %179 = load ptr, ptr %13, align 8, !tbaa !17
  %180 = getelementptr inbounds nuw %struct.MatchArg, ptr %179, i32 0, i32 0
  %181 = load ptr, ptr %180, align 8, !tbaa !85
  %182 = icmp eq ptr %181, null
  br i1 %182, label %183, label %184

183:                                              ; preds = %163
  store i32 -5, ptr %7, align 4
  store i32 1, ptr %24, align 4
  br label %190

184:                                              ; preds = %163
  %185 = load ptr, ptr %13, align 8, !tbaa !17
  %186 = getelementptr inbounds nuw %struct.MatchArg, ptr %185, i32 0, i32 0
  %187 = load ptr, ptr %186, align 8, !tbaa !85
  %188 = load ptr, ptr %18, align 8, !tbaa !60
  %189 = load i64, ptr %25, align 8, !tbaa !14
  call void @llvm.memcpy.p0.p0.i64(ptr align 1 %187, ptr align 1 %188, i64 %189, i1 false)
  store i32 0, ptr %24, align 4
  br label %190

190:                                              ; preds = %184, %183
  call void @llvm.lifetime.end.p0(i64 8, ptr %25) #9
  %191 = load i32, ptr %24, align 4
  switch i32 %191, label %294 [
    i32 0, label %192
  ]

192:                                              ; preds = %190
  br label %197

193:                                              ; preds = %150
  %194 = load ptr, ptr %18, align 8, !tbaa !60
  %195 = load ptr, ptr %13, align 8, !tbaa !17
  %196 = getelementptr inbounds nuw %struct.MatchArg, ptr %195, i32 0, i32 0
  store ptr %194, ptr %196, align 8, !tbaa !85
  br label %197

197:                                              ; preds = %193, %192
  br label %198

198:                                              ; preds = %197
  br label %199

199:                                              ; preds = %198
  store i32 -15, ptr %7, align 4
  store i32 1, ptr %24, align 4
  br label %294

200:                                              ; preds = %137
  %201 = load ptr, ptr %13, align 8, !tbaa !17
  %202 = getelementptr inbounds nuw %struct.MatchArg, ptr %201, i32 0, i32 6
  %203 = load i32, ptr %202, align 8, !tbaa !90
  store i32 %203, ptr %14, align 4, !tbaa !9
  br label %204

204:                                              ; preds = %200
  br label %205

205:                                              ; preds = %204, %131, %126
  %206 = load ptr, ptr %18, align 8, !tbaa !60
  %207 = load i64, ptr %17, align 8, !tbaa !14
  %208 = call ptr @realloc(ptr noundef %206, i64 noundef %207) #11
  store ptr %208, ptr %19, align 8, !tbaa !60
  %209 = load ptr, ptr %19, align 8, !tbaa !60
  %210 = icmp eq ptr %209, null
  br i1 %210, label %211, label %262

211:                                              ; preds = %205
  br label %212

212:                                              ; preds = %211
  %213 = load ptr, ptr %21, align 8, !tbaa !116
  %214 = load ptr, ptr %20, align 8, !tbaa !116
  %215 = ptrtoint ptr %213 to i64
  %216 = ptrtoint ptr %214 to i64
  %217 = sub i64 %215, %216
  %218 = sdiv exact i64 %217, 32
  %219 = trunc i64 %218 to i32
  %220 = load ptr, ptr %13, align 8, !tbaa !17
  %221 = getelementptr inbounds nuw %struct.MatchArg, ptr %220, i32 0, i32 1
  store i32 %219, ptr %221, align 8, !tbaa !117
  %222 = load ptr, ptr %8, align 8, !tbaa !66
  %223 = load i32, ptr %222, align 4, !tbaa !9
  %224 = icmp ne i32 %223, 0
  br i1 %224, label %225, label %255

225:                                              ; preds = %212
  call void @llvm.lifetime.start.p0(i64 8, ptr %26) #9
  %226 = load ptr, ptr %13, align 8, !tbaa !17
  %227 = getelementptr inbounds nuw %struct.MatchArg, ptr %226, i32 0, i32 4
  %228 = load i32, ptr %227, align 8, !tbaa !96
  %229 = sext i32 %228 to i64
  %230 = mul i64 8, %229
  %231 = load ptr, ptr %13, align 8, !tbaa !17
  %232 = getelementptr inbounds nuw %struct.MatchArg, ptr %231, i32 0, i32 1
  %233 = load i32, ptr %232, align 8, !tbaa !117
  %234 = sext i32 %233 to i64
  %235 = mul i64 32, %234
  %236 = add i64 %230, %235
  store i64 %236, ptr %26, align 8, !tbaa !14
  %237 = load i64, ptr %26, align 8, !tbaa !14
  %238 = call noalias ptr @malloc(i64 noundef %237) #10
  %239 = load ptr, ptr %13, align 8, !tbaa !17
  %240 = getelementptr inbounds nuw %struct.MatchArg, ptr %239, i32 0, i32 0
  store ptr %238, ptr %240, align 8, !tbaa !85
  %241 = load ptr, ptr %13, align 8, !tbaa !17
  %242 = getelementptr inbounds nuw %struct.MatchArg, ptr %241, i32 0, i32 0
  %243 = load ptr, ptr %242, align 8, !tbaa !85
  %244 = icmp eq ptr %243, null
  br i1 %244, label %245, label %246

245:                                              ; preds = %225
  store i32 -5, ptr %7, align 4
  store i32 1, ptr %24, align 4
  br label %252

246:                                              ; preds = %225
  %247 = load ptr, ptr %13, align 8, !tbaa !17
  %248 = getelementptr inbounds nuw %struct.MatchArg, ptr %247, i32 0, i32 0
  %249 = load ptr, ptr %248, align 8, !tbaa !85
  %250 = load ptr, ptr %18, align 8, !tbaa !60
  %251 = load i64, ptr %26, align 8, !tbaa !14
  call void @llvm.memcpy.p0.p0.i64(ptr align 1 %249, ptr align 1 %250, i64 %251, i1 false)
  store i32 0, ptr %24, align 4
  br label %252

252:                                              ; preds = %246, %245
  call void @llvm.lifetime.end.p0(i64 8, ptr %26) #9
  %253 = load i32, ptr %24, align 4
  switch i32 %253, label %294 [
    i32 0, label %254
  ]

254:                                              ; preds = %252
  br label %259

255:                                              ; preds = %212
  %256 = load ptr, ptr %18, align 8, !tbaa !60
  %257 = load ptr, ptr %13, align 8, !tbaa !17
  %258 = getelementptr inbounds nuw %struct.MatchArg, ptr %257, i32 0, i32 0
  store ptr %256, ptr %258, align 8, !tbaa !85
  br label %259

259:                                              ; preds = %255, %254
  br label %260

260:                                              ; preds = %259
  br label %261

261:                                              ; preds = %260
  store i32 -5, ptr %7, align 4
  store i32 1, ptr %24, align 4
  br label %294

262:                                              ; preds = %205
  br label %263

263:                                              ; preds = %262, %121
  %264 = load ptr, ptr %19, align 8, !tbaa !60
  store ptr %264, ptr %18, align 8, !tbaa !60
  %265 = load ptr, ptr %22, align 8, !tbaa !116
  %266 = load ptr, ptr %20, align 8, !tbaa !116
  %267 = ptrtoint ptr %265 to i64
  %268 = ptrtoint ptr %266 to i64
  %269 = sub i64 %267, %268
  %270 = sdiv exact i64 %269, 32
  %271 = trunc i64 %270 to i32
  store i32 %271, ptr %15, align 4, !tbaa !9
  %272 = load ptr, ptr %18, align 8, !tbaa !60
  %273 = load ptr, ptr %9, align 8, !tbaa !225
  store ptr %272, ptr %273, align 8, !tbaa !60
  %274 = load ptr, ptr %18, align 8, !tbaa !60
  %275 = load ptr, ptr %13, align 8, !tbaa !17
  %276 = getelementptr inbounds nuw %struct.MatchArg, ptr %275, i32 0, i32 4
  %277 = load i32, ptr %276, align 8, !tbaa !96
  %278 = sext i32 %277 to i64
  %279 = mul i64 8, %278
  %280 = getelementptr inbounds nuw i8, ptr %274, i64 %279
  %281 = load ptr, ptr %10, align 8, !tbaa !222
  store ptr %280, ptr %281, align 8, !tbaa !116
  %282 = load ptr, ptr %10, align 8, !tbaa !222
  %283 = load ptr, ptr %282, align 8, !tbaa !116
  %284 = load i32, ptr %15, align 4, !tbaa !9
  %285 = sext i32 %284 to i64
  %286 = getelementptr inbounds %struct._StackType, ptr %283, i64 %285
  %287 = load ptr, ptr %12, align 8, !tbaa !222
  store ptr %286, ptr %287, align 8, !tbaa !116
  %288 = load ptr, ptr %10, align 8, !tbaa !222
  %289 = load ptr, ptr %288, align 8, !tbaa !116
  %290 = load i32, ptr %14, align 4, !tbaa !9
  %291 = zext i32 %290 to i64
  %292 = getelementptr inbounds nuw %struct._StackType, ptr %289, i64 %291
  %293 = load ptr, ptr %11, align 8, !tbaa !222
  store ptr %292, ptr %293, align 8, !tbaa !116
  store i32 0, ptr %7, align 4
  store i32 1, ptr %24, align 4
  br label %294

294:                                              ; preds = %263, %261, %252, %199, %190, %120, %111
  call void @llvm.lifetime.end.p0(i64 8, ptr %22) #9
  call void @llvm.lifetime.end.p0(i64 8, ptr %21) #9
  call void @llvm.lifetime.end.p0(i64 8, ptr %20) #9
  call void @llvm.lifetime.end.p0(i64 8, ptr %19) #9
  call void @llvm.lifetime.end.p0(i64 8, ptr %18) #9
  call void @llvm.lifetime.end.p0(i64 8, ptr %17) #9
  call void @llvm.lifetime.end.p0(i64 8, ptr %16) #9
  call void @llvm.lifetime.end.p0(i64 4, ptr %15) #9
  call void @llvm.lifetime.end.p0(i64 4, ptr %14) #9
  %295 = load i32, ptr %7, align 4
  ret i32 %295
}