; Function Attrs: mustprogress nounwind willreturn uwtable
define internal fastcc range(i32 -15, 1) i32 @stack_double(ptr noundef nonnull captures(none) %0, ptr noundef nonnull captures(none) %1, ptr noundef nonnull captures(none) %2, ptr noundef nonnull captures(none) %3, ptr noundef nonnull captures(none) %4, ptr noundef nonnull captures(none) %5) unnamed_addr #6 {
  %7 = load ptr, ptr %1, align 8, !tbaa !106
  %8 = load ptr, ptr %2, align 8, !tbaa !107
  %9 = load ptr, ptr %3, align 8, !tbaa !107
  %10 = load ptr, ptr %4, align 8, !tbaa !107
  %11 = ptrtoint ptr %9 to i64
  %12 = ptrtoint ptr %8 to i64
  %13 = sub i64 %11, %12
  %14 = lshr exact i64 %13, 5
  %15 = trunc i64 %14 to i32
  %16 = getelementptr inbounds nuw i8, ptr %5, i64 24
  %17 = load i32, ptr %16, align 8, !tbaa !89
  %18 = sext i32 %17 to i64
  %19 = shl nsw i64 %18, 3
  %20 = and i64 %13, 137438953440
  %21 = add nsw i64 %19, %20
  %22 = shl i32 %15, 1
  %23 = zext i32 %22 to i64
  %24 = shl nuw nsw i64 %23, 5
  %25 = add nsw i64 %24, %19
  %26 = load i32, ptr %0, align 4, !tbaa !24
  %.not = icmp eq i32 %26, 0
  br i1 %.not, label %41, label %27

27:                                               ; preds = %6
  %28 = tail call noalias ptr @malloc(i64 noundef %25) #28
  %29 = icmp eq ptr %28, null
  br i1 %29, label %30, label %40

30:                                               ; preds = %27
  %31 = getelementptr inbounds nuw i8, ptr %5, i64 8
  store i32 %15, ptr %31, align 8, !tbaa !108
  %32 = load i32, ptr %0, align 4, !tbaa !24
  %.not109 = icmp eq i32 %32, 0
  br i1 %.not109, label %39, label %33

33:                                               ; preds = %30
  %sext110 = shl i64 %13, 27
  %34 = ashr exact i64 %sext110, 27
  %35 = and i64 %34, -32
  %36 = add nsw i64 %35, %19
  %37 = tail call noalias ptr @malloc(i64 noundef %36) #28
  store ptr %37, ptr %5, align 8, !tbaa !78
  %.not111 = icmp eq ptr %37, null
  br i1 %.not111, label %.critedge, label %38

38:                                               ; preds = %33
  tail call void @llvm.memcpy.p0.p0.i64(ptr nonnull align 1 %37, ptr align 1 %7, i64 %36, i1 false)
  br label %.critedge

39:                                               ; preds = %30
  store ptr %7, ptr %5, align 8, !tbaa !78
  br label %.critedge

40:                                               ; preds = %27
  tail call void @llvm.memcpy.p0.p0.i64(ptr nonnull align 1 %28, ptr align 1 %7, i64 %21, i1 false)
  store i32 0, ptr %0, align 4, !tbaa !24
  br label %73

41:                                               ; preds = %6
  %42 = getelementptr inbounds nuw i8, ptr %5, i64 40
  %43 = load i32, ptr %42, align 8, !tbaa !83
  %.not102 = icmp ne i32 %43, 0
  %44 = icmp ugt i32 %22, %43
  %or.cond = select i1 %.not102, i1 %44, i1 false
  br i1 %or.cond, label %45, label %57

45:                                               ; preds = %41
  %46 = icmp eq i32 %43, %15
  br i1 %46, label %47, label %57

47:                                               ; preds = %45
  %48 = getelementptr inbounds nuw i8, ptr %5, i64 8
  store i32 %15, ptr %48, align 8, !tbaa !108
  %49 = load i32, ptr %0, align 4, !tbaa !24
  %.not105 = icmp eq i32 %49, 0
  br i1 %.not105, label %56, label %50

50:                                               ; preds = %47
  %sext106 = shl i64 %13, 27
  %51 = ashr exact i64 %sext106, 27
  %52 = and i64 %51, -32
  %53 = add nsw i64 %52, %19
  %54 = tail call noalias ptr @malloc(i64 noundef %53) #28
  store ptr %54, ptr %5, align 8, !tbaa !78
  %.not107 = icmp eq ptr %54, null
  br i1 %.not107, label %.critedge, label %55

55:                                               ; preds = %50
  tail call void @llvm.memcpy.p0.p0.i64(ptr nonnull align 1 %54, ptr align 1 %7, i64 %53, i1 false)
  br label %.critedge

56:                                               ; preds = %47
  store ptr %7, ptr %5, align 8, !tbaa !78
  br label %.critedge

57:                                               ; preds = %45, %41
  %.190 = phi i32 [ %22, %41 ], [ %43, %45 ]
  %58 = tail call ptr @realloc(ptr noundef %7, i64 noundef %25) #29
  %59 = icmp eq ptr %58, null
  br i1 %59, label %60, label %._crit_edge

._crit_edge:                                      ; preds = %57
  %.pre = zext i32 %.190 to i64
  br label %73

60:                                               ; preds = %57
  %61 = getelementptr inbounds nuw i8, ptr %5, i64 8
  store i32 %15, ptr %61, align 8, !tbaa !108
  %62 = load i32, ptr %0, align 4, !tbaa !24
  %.not103 = icmp eq i32 %62, 0
  br i1 %.not103, label %72, label %63

63:                                               ; preds = %60
  %64 = load i32, ptr %16, align 8, !tbaa !89
  %65 = sext i32 %64 to i64
  %66 = shl nsw i64 %65, 3
  %sext = shl i64 %13, 27
  %67 = ashr exact i64 %sext, 27
  %68 = and i64 %67, -32
  %69 = add nsw i64 %66, %68
  %70 = tail call noalias ptr @malloc(i64 noundef %69) #28
  store ptr %70, ptr %5, align 8, !tbaa !78
  %.not104 = icmp eq ptr %70, null
  br i1 %.not104, label %.critedge, label %71

71:                                               ; preds = %63
  tail call void @llvm.memcpy.p0.p0.i64(ptr nonnull align 1 %70, ptr align 1 %7, i64 %69, i1 false)
  br label %.critedge

72:                                               ; preds = %60
  store ptr %7, ptr %5, align 8, !tbaa !78
  br label %.critedge

73:                                               ; preds = %._crit_edge, %40
  %.pre-phi = phi i64 [ %.pre, %._crit_edge ], [ %23, %40 ]
  %.094 = phi ptr [ %58, %._crit_edge ], [ %28, %40 ]
  %74 = ptrtoint ptr %10 to i64
  %75 = sub i64 %74, %12
  store ptr %.094, ptr %1, align 8, !tbaa !106
  %76 = load i32, ptr %16, align 8, !tbaa !89
  %77 = sext i32 %76 to i64
  %78 = shl nsw i64 %77, 3
  %79 = getelementptr inbounds nuw i8, ptr %.094, i64 %78
  store ptr %79, ptr %2, align 8, !tbaa !107
  %sext108 = shl i64 %75, 27
  %80 = ashr i64 %sext108, 32
  %81 = getelementptr inbounds %struct._StackType, ptr %79, i64 %80
  store ptr %81, ptr %4, align 8, !tbaa !107
  %82 = load ptr, ptr %2, align 8, !tbaa !107
  %83 = getelementptr inbounds nuw %struct._StackType, ptr %82, i64 %.pre-phi
  store ptr %83, ptr %3, align 8, !tbaa !107
  br label %.critedge

.critedge:                                        ; preds = %71, %56, %55, %38, %63, %50, %33, %72, %39, %73
  %.1 = phi i32 [ 0, %73 ], [ -5, %38 ], [ -5, %39 ], [ -5, %71 ], [ -5, %72 ], [ -5, %33 ], [ -5, %50 ], [ -5, %63 ], [ -15, %55 ], [ -15, %56 ]
  ret i32 %.1
}